target datalayout = "e-m:e-p270:32:32-p271:32:32-p272:64:64-i64:64-i128:128-f80:128-n8:16:32:64-S128"
target triple = "x86_64-pc-linux-gnu"

%union.av_intfloat32 = type { i32 }

; Function Attrs: alwaysinline nounwind willreturn memory(none) uwtable
define internal float @av_clipf_c(float noundef %0, float noundef %1, float noundef %2) #4 {
  %4 = alloca float, align 4
  %5 = alloca float, align 4
  %6 = alloca float, align 4
  store float %0, ptr %4, align 4, !tbaa !135
  store float %1, ptr %5, align 4, !tbaa !135
  store float %2, ptr %6, align 4, !tbaa !135
  %7 = load float, ptr %4, align 4, !tbaa !135
  %8 = load float, ptr %5, align 4, !tbaa !135
  %9 = fcmp nsz ogt float %7, %8
  br i1 %9, label %10, label %12

10:                                               ; preds = %3
  %11 = load float, ptr %4, align 4, !tbaa !135
  br label %14

12:                                               ; preds = %3
  %13 = load float, ptr %5, align 4, !tbaa !135
  br label %14

14:                                               ; preds = %12, %10
  %15 = phi nsz float [ %11, %10 ], [ %13, %12 ]
  %16 = load float, ptr %6, align 4, !tbaa !135
  %17 = fcmp nsz ogt float %15, %16
  br i1 %17, label %18, label %20

18:                                               ; preds = %14
  %19 = load float, ptr %6, align 4, !tbaa !135
  br label %30

20:                                               ; preds = %14
  %21 = load float, ptr %4, align 4, !tbaa !135
  %22 = load float, ptr %5, align 4, !tbaa !135
  %23 = fcmp nsz ogt float %21, %22
  br i1 %23, label %24, label %26

24:                                               ; preds = %20
  %25 = load float, ptr %4, align 4, !tbaa !135
  br label %28

26:                                               ; preds = %20
  %27 = load float, ptr %5, align 4, !tbaa !135
  br label %28

28:                                               ; preds = %26, %24
  %29 = phi nsz float [ %25, %24 ], [ %27, %26 ]
  br label %30

30:                                               ; preds = %28, %18
  %31 = phi nsz float [ %19, %18 ], [ %29, %28 ]
  ret float %31
}

; Function Attrs: alwaysinline nounwind uwtable
define internal float @av_int2float(i32 noundef %0) #3 {
  %2 = alloca i32, align 4
  %3 = alloca %union.av_intfloat32, align 4
  store i32 %0, ptr %2, align 4, !tbaa !30
  call void @llvm.lifetime.start.p0(i64 4, ptr %3) #9
  %4 = load i32, ptr %2, align 4, !tbaa !30
  store i32 %4, ptr %3, align 4, !tbaa !36
  %5 = load float, ptr %3, align 4, !tbaa !36
  call void @llvm.lifetime.end.p0(i64 4, ptr %3) #9
  ret float %5
}

; Function Attrs: alwaysinline nounwind willreturn memory(none) uwtable
define internal i32 @av_bswap32(i32 noundef %0) #4 {
  %2 = alloca i32, align 4
  store i32 %0, ptr %2, align 4, !tbaa !30
  %3 = load i32, ptr %2, align 4, !tbaa !30
  %4 = shl i32 %3, 8
  %5 = and i32 %4, 65280
  %6 = load i32, ptr %2, align 4, !tbaa !30
  %7 = lshr i32 %6, 8
  %8 = and i32 %7, 255
  %9 = or i32 %5, %8
  %10 = shl i32 %9, 16
  %11 = load i32, ptr %2, align 4, !tbaa !30
  %12 = lshr i32 %11, 16
  %13 = shl i32 %12, 8
  %14 = and i32 %13, 65280
  %15 = load i32, ptr %2, align 4, !tbaa !30
  %16 = lshr i32 %15, 16
  %17 = lshr i32 %16, 8
  %18 = and i32 %17, 255
  %19 = or i32 %14, %18
  %20 = or i32 %10, %19
  ret i32 %20
}

; Function Attrs: alwaysinline nounwind uwtable
define internal void @read_yaf32_gray_c(ptr noundef %0, ptr noundef %1, ptr noundef %2, ptr noundef %3, i32 noundef %4, i32 noundef %5, ptr noundef %6) #3 {
  %8 = alloca ptr, align 8
  %9 = alloca ptr, align 8
  %10 = alloca ptr, align 8
  %11 = alloca ptr, align 8
  %12 = alloca i32, align 4
  %13 = alloca i32, align 4
  %14 = alloca ptr, align 8
  %15 = alloca i32, align 4
  %16 = alloca ptr, align 8
  %17 = alloca ptr, align 8
  store ptr %0, ptr %8, align 8, !tbaa !34
  store ptr %1, ptr %9, align 8, !tbaa !34
  store ptr %2, ptr %10, align 8, !tbaa !34
  store ptr %3, ptr %11, align 8, !tbaa !34
  store i32 %4, ptr %12, align 4, !tbaa !30
  store i32 %5, ptr %13, align 4, !tbaa !30
  store ptr %6, ptr %14, align 8, !tbaa !35
  call void @llvm.lifetime.start.p0(i64 4, ptr %15) #9
  call void @llvm.lifetime.start.p0(i64 8, ptr %16) #9
  %18 = load ptr, ptr %9, align 8, !tbaa !34
  store ptr %18, ptr %16, align 8, !tbaa !132
  call void @llvm.lifetime.start.p0(i64 8, ptr %17) #9
  %19 = load ptr, ptr %8, align 8, !tbaa !34
  store ptr %19, ptr %17, align 8, !tbaa !43
  store i32 0, ptr %15, align 4, !tbaa !30
  br label %20

20:                                               ; preds = %54, %7
  %21 = load i32, ptr %15, align 4, !tbaa !30
  %22 = load i32, ptr %12, align 4, !tbaa !30
  %23 = icmp slt i32 %21, %22
  br i1 %23, label %24, label %57

24:                                               ; preds = %20
  %25 = load i32, ptr %13, align 4, !tbaa !30
  %26 = icmp ne i32 %25, 0
  br i1 %26, label %27, label %36

27:                                               ; preds = %24
  %28 = load ptr, ptr %16, align 8, !tbaa !132
  %29 = load i32, ptr %15, align 4, !tbaa !30
  %30 = mul nsw i32 %29, 2
  %31 = sext i32 %30 to i64
  %32 = getelementptr inbounds float, ptr %28, i64 %31
  %33 = load i32, ptr %32, align 1, !tbaa !36
  %34 = call i32 @av_bswap32(i32 noundef %33) #10
  %35 = call nsz float @av_int2float(i32 noundef %34)
  br label %44

36:                                               ; preds = %24
  %37 = load ptr, ptr %16, align 8, !tbaa !132
  %38 = load i32, ptr %15, align 4, !tbaa !30
  %39 = mul nsw i32 %38, 2
  %40 = sext i32 %39 to i64
  %41 = getelementptr inbounds float, ptr %37, i64 %40
  %42 = load i32, ptr %41, align 1, !tbaa !36
  %43 = call nsz float @av_int2float(i32 noundef %42)
  br label %44

44:                                               ; preds = %36, %27
  %45 = phi nsz float [ %35, %27 ], [ %43, %36 ]
  %46 = fmul nsz float 6.553500e+04, %45
  %47 = call nsz float @av_clipf_c(float noundef %46, float noundef 0.000000e+00, float noundef 6.553500e+04) #10
  %48 = call i64 @llvm.lrint.i64.f32(float %47)
  %49 = trunc i64 %48 to i16
  %50 = load ptr, ptr %17, align 8, !tbaa !43
  %51 = load i32, ptr %15, align 4, !tbaa !30
  %52 = sext i32 %51 to i64
  %53 = getelementptr inbounds i16, ptr %50, i64 %52
  store i16 %49, ptr %53, align 2, !tbaa !44
  br label %54

54:                                               ; preds = %44
  %55 = load i32, ptr %15, align 4, !tbaa !30
  %56 = add nsw i32 %55, 1
  store i32 %56, ptr %15, align 4, !tbaa !30
  br label %20, !llvm.loop !163

57:                                               ; preds = %20
  call void @llvm.lifetime.end.p0(i64 8, ptr %17) #9
  call void @llvm.lifetime.end.p0(i64 8, ptr %16) #9
  call void @llvm.lifetime.end.p0(i64 4, ptr %15) #9
  ret void
}

; Function Attrs: nounwind uwtable
define internal void @read_yaf32be_gray_c(ptr noundef %0, ptr noundef %1, ptr noundef %2, ptr noundef %3, i32 noundef %4, ptr noundef %5, ptr noundef %6) #2 {
  %8 = alloca ptr, align 8
  %9 = alloca ptr, align 8
  %10 = alloca ptr, align 8
  %11 = alloca ptr, align 8
  %12 = alloca i32, align 4
  %13 = alloca ptr, align 8
  %14 = alloca ptr, align 8
  store ptr %0, ptr %8, align 8, !tbaa !34
  store ptr %1, ptr %9, align 8, !tbaa !34
  store ptr %2, ptr %10, align 8, !tbaa !34
  store ptr %3, ptr %11, align 8, !tbaa !34
  store i32 %4, ptr %12, align 4, !tbaa !30
  store ptr %5, ptr %13, align 8, !tbaa !35
  store ptr %6, ptr %14, align 8, !tbaa !31
  %15 = load ptr, ptr %8, align 8, !tbaa !34
  %16 = load ptr, ptr %9, align 8, !tbaa !34
  %17 = load ptr, ptr %10, align 8, !tbaa !34
  %18 = load ptr, ptr %11, align 8, !tbaa !34
  %19 = load i32, ptr %12, align 4, !tbaa !30
  %20 = load ptr, ptr %13, align 8, !tbaa !35
  call void @read_yaf32_gray_c(ptr noundef %15, ptr noundef %16, ptr noundef %17, ptr noundef %18, i32 noundef %19, i32 noundef 1, ptr noundef %20)
  ret void
}