; Function Attrs: nofree norecurse nosync nounwind memory(argmem: readwrite) uwtable
define internal void @read_yaf32be_gray_c(ptr noundef writeonly captures(none) %0, ptr noundef readonly captures(none) %1, ptr readnone captures(none) %2, ptr readnone captures(none) %3, i32 noundef %4, ptr readnone captures(none) %5, ptr readnone captures(none) %6) #1 {
  %8 = icmp sgt i32 %4, 0
  br i1 %8, label %.lr.ph.preheader, label %read_yaf32_gray_c.exit

.lr.ph.preheader:                                 ; preds = %7
  %wide.trip.count = zext nneg i32 %4 to i64
  br label %.lr.ph

.lr.ph:                                           ; preds = %.lr.ph.preheader, %.lr.ph
  %indvars.iv = phi i64 [ 0, %.lr.ph.preheader ], [ %indvars.iv.next, %.lr.ph ]
  %.idx = shl nuw nsw i64 %indvars.iv, 3
  %9 = getelementptr inbounds nuw i8, ptr %1, i64 %.idx
  %10 = load i32, ptr %9, align 1, !tbaa !34
  %11 = tail call i32 @llvm.bswap.i32(i32 %10)
  %12 = bitcast i32 %11 to float
  %13 = fmul nsz float %12, 6.553500e+04
  %14 = fcmp nsz ogt float %13, 0.000000e+00
  %15 = select nsz i1 %14, float %13, float 0.000000e+00
  %16 = fcmp nsz ogt float %15, 6.553500e+04
  %..i.i = select nsz i1 %16, float 6.553500e+04, float %15
  %17 = tail call i64 @llvm.lrint.i64.f32(float %..i.i)
  %18 = trunc i64 %17 to i16
  %19 = getelementptr inbounds nuw i16, ptr %0, i64 %indvars.iv
  store i16 %18, ptr %19, align 2, !tbaa !43
  %indvars.iv.next = add nuw nsw i64 %indvars.iv, 1
  %exitcond.not = icmp eq i64 %indvars.iv.next, %wide.trip.count
  br i1 %exitcond.not, label %read_yaf32_gray_c.exit, label %.lr.ph, !llvm.loop !134

read_yaf32_gray_c.exit:                           ; preds = %.lr.ph, %7
  ret void
}